target datalayout = "e-m:e-p270:32:32-p271:32:32-p272:64:64-i64:64-i128:128-f80:128-n8:16:32:64-S128"
target triple = "x86_64-pc-linux-gnu"

%struct.bio_st = type { ptr, ptr, ptr, ptr, ptr, i32, i32, i32, i32, i32, ptr, ptr, ptr, %struct.CRYPTO_REF_COUNT, i64, i64, %struct.crypto_ex_data_st }
%struct.CRYPTO_REF_COUNT = type { i32 }
%struct.crypto_ex_data_st = type { ptr, ptr }

; Function Attrs: nounwind uwtable
define internal i32 @acpt_write(ptr noundef %0, ptr noundef %1, i32 noundef %2) #0 {
  %4 = alloca i32, align 4
  %5 = alloca ptr, align 8
  %6 = alloca ptr, align 8
  %7 = alloca i32, align 4
  %8 = alloca i32, align 4
  %9 = alloca ptr, align 8
  %10 = alloca i32, align 4
  store ptr %0, ptr %5, align 8, !tbaa !8
  store ptr %1, ptr %6, align 8, !tbaa !3
  store i32 %2, ptr %7, align 4, !tbaa !10
  call void @llvm.lifetime.start.p0(i64 4, ptr %8) #6
  call void @llvm.lifetime.start.p0(i64 8, ptr %9) #6
  %11 = load ptr, ptr %5, align 8, !tbaa !8
  call void @BIO_clear_flags(ptr noundef %11, i32 noundef 15)
  %12 = load ptr, ptr %5, align 8, !tbaa !8
  %13 = getelementptr inbounds nuw %struct.bio_st, ptr %12, i32 0, i32 10
  %14 = load ptr, ptr %13, align 8, !tbaa !12
  store ptr %14, ptr %9, align 8, !tbaa !20
  br label %15

15:                                               ; preds = %28, %3
  %16 = load ptr, ptr %5, align 8, !tbaa !8
  %17 = getelementptr inbounds nuw %struct.bio_st, ptr %16, i32 0, i32 11
  %18 = load ptr, ptr %17, align 8, !tbaa !22
  %19 = icmp eq ptr %18, null
  br i1 %19, label %20, label %29

20:                                               ; preds = %15
  %21 = load ptr, ptr %5, align 8, !tbaa !8
  %22 = load ptr, ptr %9, align 8, !tbaa !20
  %23 = call i32 @acpt_state(ptr noundef %21, ptr noundef %22)
  store i32 %23, ptr %8, align 4, !tbaa !10
  %24 = load i32, ptr %8, align 4, !tbaa !10
  %25 = icmp sle i32 %24, 0
  br i1 %25, label %26, label %28

26:                                               ; preds = %20
  %27 = load i32, ptr %8, align 4, !tbaa !10
  store i32 %27, ptr %4, align 4
  store i32 1, ptr %10, align 4
  br label %38

28:                                               ; preds = %20
  br label %15, !llvm.loop !23

29:                                               ; preds = %15
  %30 = load ptr, ptr %5, align 8, !tbaa !8
  %31 = getelementptr inbounds nuw %struct.bio_st, ptr %30, i32 0, i32 11
  %32 = load ptr, ptr %31, align 8, !tbaa !22
  %33 = load ptr, ptr %6, align 8, !tbaa !3
  %34 = load i32, ptr %7, align 4, !tbaa !10
  %35 = call i32 @BIO_write(ptr noundef %32, ptr noundef %33, i32 noundef %34)
  store i32 %35, ptr %8, align 4, !tbaa !10
  %36 = load ptr, ptr %5, align 8, !tbaa !8
  call void @BIO_copy_next_retry(ptr noundef %36)
  %37 = load i32, ptr %8, align 4, !tbaa !10
  store i32 %37, ptr %4, align 4
  store i32 1, ptr %10, align 4
  br label %38

38:                                               ; preds = %29, %26
  call void @llvm.lifetime.end.p0(i64 8, ptr %9) #6
  call void @llvm.lifetime.end.p0(i64 4, ptr %8) #6
  %39 = load i32, ptr %4, align 4
  ret i32 %39
}